target datalayout = "e-m:e-p270:32:32-p271:32:32-p272:64:64-i64:64-i128:128-f80:128-n8:16:32:64-S128"
target triple = "x86_64-pc-linux-gnu"

%struct.pmix_mca_base_framework_t = type { ptr, ptr, ptr, ptr, ptr, ptr, i32, i32, ptr, ptr, i32, i32, %struct.pmix_list_t, %struct.pmix_list_t }
%struct.pmix_list_t = type { %struct.pmix_object_t, %struct.pmix_list_item_t, i64 }
%struct.pmix_object_t = type { %union.pthread_mutex_t, ptr, i32, %struct.pmix_tma }
%union.pthread_mutex_t = type { %struct.__pthread_mutex_s }
%struct.__pthread_mutex_s = type { i32, i32, i32, i32, i32, i16, i16, %struct.__pthread_internal_list }
%struct.__pthread_internal_list = type { ptr, ptr }
%struct.pmix_tma = type { ptr, ptr, ptr, ptr, ptr, ptr, ptr, ptr }
%struct.pmix_list_item_t = type { %struct.pmix_object_t, ptr, ptr, i32 }
%struct.pmix_output_desc_t = type { i8, i8, i32, i8, i32, ptr, ptr, i32, ptr, i32, i8, i8, i8, i8, ptr, i32, i32 }
%struct.pmix_globals_t = type { i32, %struct.pmix_proc, %struct.pmix_value, %struct.pmix_value, ptr, i32, i32, ptr, i32, i32, i32, i32, i32, ptr, ptr, i32, %struct.pmix_events_t, i8, i8, %struct.timeval, %struct.pmix_list_t, %struct.pmix_pointer_array_t, i32, i32, %struct.pmix_hotel_t, i8, %struct.pmix_list_t, i8, i8, i8, i64, %struct.pmix_list_t, %struct.pmix_topology_t, %struct.pmix_cpuset_t, i8, i8, %struct.pmix_iof_flags_t, %struct.pmix_keyindex_t }
%struct.pmix_proc = type { [256 x i8], i32 }
%struct.pmix_value = type { i16, %union.anon }
%union.anon = type { %struct.pmix_envar_t }
%struct.pmix_envar_t = type { ptr, ptr, i8 }
%struct.pmix_events_t = type { %struct.pmix_object_t, i64, ptr, ptr, %struct.pmix_list_t, %struct.pmix_list_t, %struct.pmix_list_t, %struct.pmix_list_t }
%struct.timeval = type { i64, i64 }
%struct.pmix_pointer_array_t = type { %struct.pmix_object_t, i32, i32, i32, i32, i32, ptr, ptr }
%struct.pmix_hotel_t = type { %struct.pmix_object_t, i32, ptr, %struct.timeval, ptr, ptr, ptr, ptr, i32 }
%struct.pmix_topology_t = type { ptr, ptr }
%struct.pmix_cpuset_t = type { ptr, ptr }
%struct.pmix_iof_flags_t = type { i8, i8, i8, i8, i8, i8, i8, ptr, ptr, i8, i8, i8, i8, i8, i8 }
%struct.pmix_keyindex_t = type { %struct.pmix_object_t, ptr, i32 }
%struct.pmix_pfexec_globals_t = type { ptr, i8, %struct.pmix_list_t, i32, i64, i8 }
%struct.pmix_iof_sink_t = type { %struct.pmix_list_item_t, %struct.pmix_proc, i16, %struct.pmix_iof_write_event_t, i8, i8, i8 }
%struct.pmix_iof_write_event_t = type { %struct.pmix_list_item_t, i8, i8, i32, ptr, %struct.timeval, i32, %struct.pmix_list_t }
%struct.event = type { %struct.event_callback, %union.anon.2, i32, ptr, %union.anon.4, i16, i16, %struct.timeval }
%struct.event_callback = type { %struct.anon.0, i16, i8, i8, %union.anon.1, ptr }
%struct.anon.0 = type { ptr, ptr }
%union.anon.1 = type { ptr }
%union.anon.2 = type { %struct.anon.3 }
%struct.anon.3 = type { ptr, ptr }
%union.anon.4 = type { %struct.anon.5 }
%struct.anon.5 = type { %struct.anon.6, %struct.timeval }
%struct.anon.6 = type { ptr, ptr }
%struct.pmix_pfexec_child_t = type { %struct.pmix_list_item_t, %struct.event, %struct.pmix_proc, i32, i8, i32, [2 x i32], %struct.pmix_pfexec_base_io_conf_t, %struct.pmix_iof_sink_t, ptr, ptr }
%struct.pmix_pfexec_base_io_conf_t = type { i32, i8, [2 x i32], [2 x i32], [2 x i32] }
%struct.pmix_pfexec_signal_caddy_t = type { %struct.pmix_object_t, %struct.event, ptr, i32, ptr, ptr }
%struct.pmix_lock_t = type { i32, %struct.pmix_mutex_t, %union.pthread_cond_t, i8 }
%struct.pmix_mutex_t = type { %struct.pmix_object_t, %union.pthread_mutex_t }
%union.pthread_cond_t = type { %struct.__pthread_cond_s }
%struct.__pthread_cond_s = type { %union.__atomic_wide_counter, %union.__atomic_wide_counter, [2 x i32], [2 x i32], i32, i32, [2 x i32] }
%union.__atomic_wide_counter = type { i64 }

@pmix_pfexec_base_framework = external global %struct.pmix_mca_base_framework_t, align 8
@pmix_output_info = external global [0 x %struct.pmix_output_desc_t], align 8
@pmix_globals = external global %struct.pmix_globals_t, align 8
@pmix_pfexec_globals = external global %struct.pmix_pfexec_globals_t, align 8
@.str.31 = private unnamed_addr constant [16 x i8] c"%s SIGNALING %d\00", align 1

; Function Attrs: inlinehint nounwind uwtable
define internal void @pmix_mutex_unlock(ptr noundef %0) #5 {
  %2 = alloca ptr, align 8
  store ptr %0, ptr %2, align 8, !tbaa !199
  %3 = load ptr, ptr %2, align 8, !tbaa !199
  %4 = getelementptr inbounds nuw %struct.pmix_mutex_t, ptr %3, i32 0, i32 1
  %5 = call i32 @pthread_mutex_unlock(ptr noundef %4) #12
  ret void
}

; Function Attrs: inlinehint nounwind uwtable
define internal void @pmix_atomic_wmb() #5 {
  fence release
  ret void
}

; Function Attrs: inlinehint nounwind uwtable
define internal void @pmix_mutex_lock(ptr noundef %0) #5 {
  %2 = alloca ptr, align 8
  store ptr %0, ptr %2, align 8, !tbaa !199
  %3 = load ptr, ptr %2, align 8, !tbaa !199
  %4 = getelementptr inbounds nuw %struct.pmix_mutex_t, ptr %3, i32 0, i32 1
  %5 = call i32 @pthread_mutex_lock(ptr noundef %4) #12
  ret void
}

; Function Attrs: nounwind uwtable
define void @pmix_pfexec_base_signal_proc(i32 noundef %0, i16 noundef signext %1, ptr noundef %2) #0 {
  %4 = alloca i32, align 4
  %5 = alloca i16, align 2
  %6 = alloca ptr, align 8
  %7 = alloca ptr, align 8
  %8 = alloca ptr, align 8
  %9 = alloca ptr, align 8
  %10 = alloca i32, align 4
  store i32 %0, ptr %4, align 4, !tbaa !3
  store i16 %1, ptr %5, align 2, !tbaa !7
  store ptr %2, ptr %6, align 8, !tbaa !9
  call void @llvm.lifetime.start.p0(i64 8, ptr %7) #12
  %11 = load ptr, ptr %6, align 8, !tbaa !9
  store ptr %11, ptr %7, align 8, !tbaa !9
  call void @llvm.lifetime.start.p0(i64 8, ptr %8) #12
  call void @llvm.lifetime.start.p0(i64 8, ptr %9) #12
  store ptr null, ptr %8, align 8, !tbaa !9
  %12 = load ptr, ptr getelementptr inbounds nuw (%struct.pmix_list_item_t, ptr getelementptr inbounds nuw (%struct.pmix_list_t, ptr getelementptr inbounds nuw (%struct.pmix_pfexec_globals_t, ptr @pmix_pfexec_globals, i32 0, i32 2), i32 0, i32 1), i32 0, i32 1), align 8, !tbaa !187
  store ptr %12, ptr %9, align 8, !tbaa !9
  br label %13

13:                                               ; preds = %26, %3
  %14 = load ptr, ptr %9, align 8, !tbaa !9
  %15 = icmp ne ptr %14, getelementptr inbounds nuw (%struct.pmix_list_t, ptr getelementptr inbounds nuw (%struct.pmix_pfexec_globals_t, ptr @pmix_pfexec_globals, i32 0, i32 2), i32 0, i32 1)
  br i1 %15, label %16, label %30

16:                                               ; preds = %13
  %17 = load ptr, ptr %7, align 8, !tbaa !9
  %18 = getelementptr inbounds nuw %struct.pmix_pfexec_signal_caddy_t, ptr %17, i32 0, i32 2
  %19 = load ptr, ptr %18, align 8, !tbaa !188
  %20 = load ptr, ptr %9, align 8, !tbaa !9
  %21 = getelementptr inbounds nuw %struct.pmix_pfexec_child_t, ptr %20, i32 0, i32 2
  %22 = call zeroext i1 @PMIx_Check_procid(ptr noundef %19, ptr noundef %21)
  br i1 %22, label %23, label %25

23:                                               ; preds = %16
  %24 = load ptr, ptr %9, align 8, !tbaa !9
  store ptr %24, ptr %8, align 8, !tbaa !9
  br label %30

25:                                               ; preds = %16
  br label %26

26:                                               ; preds = %25
  %27 = load ptr, ptr %9, align 8, !tbaa !9
  %28 = getelementptr inbounds nuw %struct.pmix_list_item_t, ptr %27, i32 0, i32 1
  %29 = load ptr, ptr %28, align 8, !tbaa !139
  store ptr %29, ptr %9, align 8, !tbaa !9
  br label %13, !llvm.loop !201

30:                                               ; preds = %23, %13
  %31 = load ptr, ptr %8, align 8, !tbaa !9
  %32 = icmp eq ptr null, %31
  br i1 %32, label %33, label %58

33:                                               ; preds = %30
  %34 = load ptr, ptr %7, align 8, !tbaa !9
  %35 = getelementptr inbounds nuw %struct.pmix_pfexec_signal_caddy_t, ptr %34, i32 0, i32 5
  %36 = load ptr, ptr %35, align 8, !tbaa !191
  %37 = getelementptr inbounds nuw %struct.pmix_lock_t, ptr %36, i32 0, i32 0
  store i32 0, ptr %37, align 8, !tbaa !192
  br label %38

38:                                               ; preds = %33
  %39 = load ptr, ptr %7, align 8, !tbaa !9
  %40 = getelementptr inbounds nuw %struct.pmix_pfexec_signal_caddy_t, ptr %39, i32 0, i32 5
  %41 = load ptr, ptr %40, align 8, !tbaa !191
  %42 = getelementptr inbounds nuw %struct.pmix_lock_t, ptr %41, i32 0, i32 1
  call void @pmix_mutex_lock(ptr noundef %42)
  %43 = load ptr, ptr %7, align 8, !tbaa !9
  %44 = getelementptr inbounds nuw %struct.pmix_pfexec_signal_caddy_t, ptr %43, i32 0, i32 5
  %45 = load ptr, ptr %44, align 8, !tbaa !191
  %46 = getelementptr inbounds nuw %struct.pmix_lock_t, ptr %45, i32 0, i32 3
  store volatile i8 0, ptr %46, align 8, !tbaa !195
  call void @pmix_atomic_wmb()
  %47 = load ptr, ptr %7, align 8, !tbaa !9
  %48 = getelementptr inbounds nuw %struct.pmix_pfexec_signal_caddy_t, ptr %47, i32 0, i32 5
  %49 = load ptr, ptr %48, align 8, !tbaa !191
  %50 = getelementptr inbounds nuw %struct.pmix_lock_t, ptr %49, i32 0, i32 2
  %51 = call i32 @pthread_cond_broadcast(ptr noundef %50) #12
  %52 = load ptr, ptr %7, align 8, !tbaa !9
  %53 = getelementptr inbounds nuw %struct.pmix_pfexec_signal_caddy_t, ptr %52, i32 0, i32 5
  %54 = load ptr, ptr %53, align 8, !tbaa !191
  %55 = getelementptr inbounds nuw %struct.pmix_lock_t, ptr %54, i32 0, i32 1
  call void @pmix_mutex_unlock(ptr noundef %55)
  br label %56

56:                                               ; preds = %38
  br label %57

57:                                               ; preds = %56
  store i32 1, ptr %10, align 4
  br label %112

58:                                               ; preds = %30
  %59 = load i32, ptr getelementptr inbounds nuw (%struct.pmix_mca_base_framework_t, ptr @pmix_pfexec_base_framework, i32 0, i32 11), align 4, !tbaa !15
  %60 = icmp sge i32 %59, 0
  br i1 %60, label %61, label %77

61:                                               ; preds = %58
  %62 = load i32, ptr getelementptr inbounds nuw (%struct.pmix_mca_base_framework_t, ptr @pmix_pfexec_base_framework, i32 0, i32 11), align 4, !tbaa !15
  %63 = icmp slt i32 %62, 64
  br i1 %63, label %64, label %77

64:                                               ; preds = %61
  %65 = load i32, ptr getelementptr inbounds nuw (%struct.pmix_mca_base_framework_t, ptr @pmix_pfexec_base_framework, i32 0, i32 11), align 4, !tbaa !15
  %66 = sext i32 %65 to i64
  %67 = getelementptr inbounds [0 x %struct.pmix_output_desc_t], ptr @pmix_output_info, i64 0, i64 %66
  %68 = getelementptr inbounds nuw %struct.pmix_output_desc_t, ptr %67, i32 0, i32 2
  %69 = load i32, ptr %68, align 4, !tbaa !26
  %70 = icmp sge i32 %69, 5
  br i1 %70, label %71, label %77

71:                                               ; preds = %64
  %72 = load i32, ptr getelementptr inbounds nuw (%struct.pmix_mca_base_framework_t, ptr @pmix_pfexec_base_framework, i32 0, i32 11), align 4, !tbaa !15
  %73 = call ptr @pmix_util_print_name_args(ptr noundef getelementptr inbounds nuw (%struct.pmix_globals_t, ptr @pmix_globals, i32 0, i32 1))
  %74 = load ptr, ptr %7, align 8, !tbaa !9
  %75 = getelementptr inbounds nuw %struct.pmix_pfexec_signal_caddy_t, ptr %74, i32 0, i32 3
  %76 = load i32, ptr %75, align 8, !tbaa !202
  call void (i32, ptr, ...) @pmix_output(i32 noundef %72, ptr noundef @.str.31, ptr noundef %73, i32 noundef %76)
  br label %77

77:                                               ; preds = %71, %64, %61, %58
  %78 = load ptr, ptr %7, align 8, !tbaa !9
  %79 = getelementptr inbounds nuw %struct.pmix_pfexec_signal_caddy_t, ptr %78, i32 0, i32 4
  %80 = load ptr, ptr %79, align 8, !tbaa !196
  %81 = load ptr, ptr %8, align 8, !tbaa !9
  %82 = getelementptr inbounds nuw %struct.pmix_pfexec_child_t, ptr %81, i32 0, i32 3
  %83 = load i32, ptr %82, align 4, !tbaa !197
  %84 = load ptr, ptr %7, align 8, !tbaa !9
  %85 = getelementptr inbounds nuw %struct.pmix_pfexec_signal_caddy_t, ptr %84, i32 0, i32 3
  %86 = load i32, ptr %85, align 8, !tbaa !202
  %87 = call i32 %80(i32 noundef %83, i32 noundef %86)
  %88 = load ptr, ptr %7, align 8, !tbaa !9
  %89 = getelementptr inbounds nuw %struct.pmix_pfexec_signal_caddy_t, ptr %88, i32 0, i32 5
  %90 = load ptr, ptr %89, align 8, !tbaa !191
  %91 = getelementptr inbounds nuw %struct.pmix_lock_t, ptr %90, i32 0, i32 0
  store i32 %87, ptr %91, align 8, !tbaa !192
  br label %92

92:                                               ; preds = %77
  %93 = load ptr, ptr %7, align 8, !tbaa !9
  %94 = getelementptr inbounds nuw %struct.pmix_pfexec_signal_caddy_t, ptr %93, i32 0, i32 5
  %95 = load ptr, ptr %94, align 8, !tbaa !191
  %96 = getelementptr inbounds nuw %struct.pmix_lock_t, ptr %95, i32 0, i32 1
  call void @pmix_mutex_lock(ptr noundef %96)
  %97 = load ptr, ptr %7, align 8, !tbaa !9
  %98 = getelementptr inbounds nuw %struct.pmix_pfexec_signal_caddy_t, ptr %97, i32 0, i32 5
  %99 = load ptr, ptr %98, align 8, !tbaa !191
  %100 = getelementptr inbounds nuw %struct.pmix_lock_t, ptr %99, i32 0, i32 3
  store volatile i8 0, ptr %100, align 8, !tbaa !195
  call void @pmix_atomic_wmb()
  %101 = load ptr, ptr %7, align 8, !tbaa !9
  %102 = getelementptr inbounds nuw %struct.pmix_pfexec_signal_caddy_t, ptr %101, i32 0, i32 5
  %103 = load ptr, ptr %102, align 8, !tbaa !191
  %104 = getelementptr inbounds nuw %struct.pmix_lock_t, ptr %103, i32 0, i32 2
  %105 = call i32 @pthread_cond_broadcast(ptr noundef %104) #12
  %106 = load ptr, ptr %7, align 8, !tbaa !9
  %107 = getelementptr inbounds nuw %struct.pmix_pfexec_signal_caddy_t, ptr %106, i32 0, i32 5
  %108 = load ptr, ptr %107, align 8, !tbaa !191
  %109 = getelementptr inbounds nuw %struct.pmix_lock_t, ptr %108, i32 0, i32 1
  call void @pmix_mutex_unlock(ptr noundef %109)
  br label %110

110:                                              ; preds = %92
  br label %111

111:                                              ; preds = %110
  store i32 0, ptr %10, align 4
  br label %112

112:                                              ; preds = %111, %57
  call void @llvm.lifetime.end.p0(i64 8, ptr %9) #12
  call void @llvm.lifetime.end.p0(i64 8, ptr %8) #12
  call void @llvm.lifetime.end.p0(i64 8, ptr %7) #12
  %113 = load i32, ptr %10, align 4
  switch i32 %113, label %115 [
    i32 0, label %114
    i32 1, label %114
  ]

114:                                              ; preds = %112, %112
  ret void

115:                                              ; preds = %112
  unreachable
}