; Function Attrs: nounwind uwtable
define void @pmix_pfexec_base_signal_proc(i32 noundef %0, i16 noundef signext %1, ptr noundef readonly captures(none) %2) local_unnamed_addr #0 {
  %.026 = load ptr, ptr getelementptr inbounds nuw (i8, ptr @pmix_pfexec_globals, i64 256), align 8, !tbaa !43
  %.not27 = icmp eq ptr %.026, getelementptr inbounds nuw (i8, ptr @pmix_pfexec_globals, i64 136)
  br i1 %.not27, label %.thread, label %.lr.ph

.lr.ph:                                           ; preds = %3
  %4 = getelementptr inbounds nuw i8, ptr %2, i64 248
  br label %5

5:                                                ; preds = %.lr.ph, %9
  %.028 = phi ptr [ %.026, %.lr.ph ], [ %.0, %9 ]
  %6 = load ptr, ptr %4, align 8, !tbaa !162
  %7 = getelementptr inbounds nuw i8, ptr %.028, i64 272
  %8 = tail call zeroext i1 @PMIx_Check_procid(ptr noundef %6, ptr noundef nonnull %7) #12
  br i1 %8, label %11, label %9

9:                                                ; preds = %5
  %10 = getelementptr inbounds nuw i8, ptr %.028, i64 120
  %.0 = load ptr, ptr %10, align 8, !tbaa !43
  %.not = icmp eq ptr %.0, getelementptr inbounds nuw (i8, ptr @pmix_pfexec_globals, i64 136)
  br i1 %.not, label %.thread, label %5, !llvm.loop !173

11:                                               ; preds = %5
  %12 = icmp eq ptr %.028, null
  br i1 %12, label %.thread, label %13

13:                                               ; preds = %11
  %14 = load i32, ptr getelementptr inbounds nuw (i8, ptr @pmix_pfexec_base_framework, i64 76), align 4, !tbaa !8
  %or.cond = icmp ult i32 %14, 64
  br i1 %or.cond, label %15, label %24

15:                                               ; preds = %13
  %16 = zext nneg i32 %14 to i64
  %17 = getelementptr inbounds nuw [0 x %struct.pmix_output_desc_t], ptr @pmix_output_info, i64 0, i64 %16, i32 2
  %18 = load i32, ptr %17, align 4, !tbaa !20
  %19 = icmp sgt i32 %18, 4
  br i1 %19, label %20, label %24

20:                                               ; preds = %15
  %21 = tail call ptr @pmix_util_print_name_args(ptr noundef nonnull getelementptr inbounds nuw (i8, ptr @pmix_globals, i64 4)) #12
  %22 = getelementptr inbounds nuw i8, ptr %2, i64 256
  %23 = load i32, ptr %22, align 8, !tbaa !174
  tail call void (i32, ptr, ...) @pmix_output(i32 noundef %14, ptr noundef nonnull @.str.31, ptr noundef %21, i32 noundef %23) #12
  br label %24

24:                                               ; preds = %20, %15, %13
  %25 = getelementptr inbounds nuw i8, ptr %2, i64 264
  %26 = load ptr, ptr %25, align 8, !tbaa !169
  %27 = getelementptr inbounds nuw i8, ptr %.028, i64 532
  %28 = load i32, ptr %27, align 4, !tbaa !170
  %29 = getelementptr inbounds nuw i8, ptr %2, i64 256
  %30 = load i32, ptr %29, align 8, !tbaa !174
  %31 = tail call i32 %26(i32 noundef %28, i32 noundef %30) #12
  br label %.thread

.thread:                                          ; preds = %9, %11, %3, %24
  %.sink39 = phi i32 [ %31, %24 ], [ 0, %3 ], [ 0, %11 ], [ 0, %9 ]
  %32 = getelementptr inbounds nuw i8, ptr %2, i64 272
  %33 = load ptr, ptr %32, align 8, !tbaa !165
  store i32 %.sink39, ptr %33, align 8, !tbaa !166
  %34 = getelementptr inbounds nuw i8, ptr %33, i64 128
  %35 = tail call i32 @pthread_mutex_lock(ptr noundef nonnull %34) #12
  %36 = load ptr, ptr %32, align 8, !tbaa !165
  %37 = getelementptr inbounds nuw i8, ptr %36, i64 216
  store volatile i8 0, ptr %37, align 8, !tbaa !172
  fence release
  %38 = getelementptr inbounds nuw i8, ptr %36, i64 168
  %39 = tail call i32 @pthread_cond_broadcast(ptr noundef nonnull %38) #12
  %40 = load ptr, ptr %32, align 8, !tbaa !165
  %41 = getelementptr inbounds nuw i8, ptr %40, i64 128
  %42 = tail call i32 @pthread_mutex_unlock(ptr noundef nonnull %41) #12
  ret void
}